; Function Attrs: nounwind uwtable
define ptr @l_Lean_Json_escape___boxed(ptr noundef %0, ptr noundef %1) local_unnamed_addr #0 {
  %3 = tail call zeroext i8 @l___private_Lean_Data_Json_Printer_0__Lean_Json_needEscape_go(ptr noundef %0, ptr noundef nonnull inttoptr (i64 1 to ptr))
  %4 = icmp eq i8 %3, 0
  br i1 %4, label %5, label %lean_dec.exit.i

5:                                                ; preds = %2
  %6 = tail call ptr @lean_string_append(ptr noundef %1, ptr noundef %0) #3
  br label %l_Lean_Json_escape.exit

lean_dec.exit.i:                                  ; preds = %2
  %7 = getelementptr i8, ptr %0, i64 8
  %.val.i = load i64, ptr %7, align 8, !tbaa !12
  %8 = shl i64 %.val.i, 1
  %9 = add i64 %8, -1
  %10 = inttoptr i64 %9 to ptr
  %11 = tail call ptr @l_String_foldlAux___at_Lean_Json_escape___spec__1(ptr noundef %0, ptr noundef nonnull %10, ptr noundef nonnull inttoptr (i64 1 to ptr), ptr noundef %1)
  br label %l_Lean_Json_escape.exit

l_Lean_Json_escape.exit:                          ; preds = %5, %lean_dec.exit.i
  %.0.i = phi ptr [ %6, %5 ], [ %11, %lean_dec.exit.i ]
  %12 = ptrtoint ptr %0 to i64
  %13 = and i64 %12, 1
  %.not = icmp eq i64 %13, 0
  br i1 %.not, label %14, label %lean_dec.exit

14:                                               ; preds = %l_Lean_Json_escape.exit
  %15 = load i32, ptr %0, align 4, !tbaa !8
  %16 = icmp sgt i32 %15, 1
  br i1 %16, label %17, label %19, !prof !11

17:                                               ; preds = %14
  %18 = add nsw i32 %15, -1
  store i32 %18, ptr %0, align 4, !tbaa !8
  br label %lean_dec.exit

19:                                               ; preds = %14
  %.not.i = icmp eq i32 %15, 0
  br i1 %.not.i, label %lean_dec.exit, label %20

20:                                               ; preds = %19
  tail call void @lean_dec_ref_cold(ptr noundef nonnull %0) #3
  br label %lean_dec.exit

lean_dec.exit:                                    ; preds = %20, %19, %17, %l_Lean_Json_escape.exit
  ret ptr %.0.i
}